; Function Attrs: nounwind uwtable
define internal noundef i32 @lj_cf_ffi_abi(ptr noundef %0) #0 {
  %2 = tail call ptr @lj_lib_checkstr(ptr noundef %0, i32 noundef 1) #9
  %3 = tail call i32 @lj_cparse_case(ptr noundef %2, ptr noundef nonnull @.str.12) #9
  %4 = icmp sgt i32 %3, -1
  %5 = select i1 %4, i64 -281474976710657, i64 -140737488355329
  %6 = getelementptr inbounds nuw i8, ptr %0, i64 40
  %7 = load ptr, ptr %6, align 8, !tbaa !4
  %8 = getelementptr inbounds i8, ptr %7, i64 -8
  store i64 %5, ptr %8, align 8, !tbaa !23
  %9 = getelementptr inbounds nuw i8, ptr %0, i64 16
  %10 = load i64, ptr %9, align 8, !tbaa !24
  %11 = inttoptr i64 %10 to ptr
  %12 = getelementptr inbounds nuw i8, ptr %11, i64 240
  store i64 %5, ptr %12, align 8, !tbaa !23
  ret i32 1
}